target datalayout = "e-m:e-p270:32:32-p271:32:32-p272:64:64-i64:64-i128:128-f80:128-n8:16:32:64-S128"
target triple = "x86_64-unknown-linux-gnu"

%"class.std::filesystem::__cxx11::path" = type { %"class.std::__cxx11::basic_string", %"struct.std::filesystem::__cxx11::path::_List" }
%"class.std::__cxx11::basic_string" = type { %"struct.std::__cxx11::basic_string<char>::_Alloc_hider", i64, %union.anon }
%"struct.std::__cxx11::basic_string<char>::_Alloc_hider" = type { ptr }
%union.anon = type { i64, [8 x i8] }
%"struct.std::filesystem::__cxx11::path::_List" = type { %"class.std::unique_ptr" }
%"class.std::unique_ptr" = type { %"struct.std::__uniq_ptr_data" }
%"struct.std::__uniq_ptr_data" = type { %"class.std::__uniq_ptr_impl" }
%"class.std::__uniq_ptr_impl" = type { %"class.std::tuple" }
%"class.std::tuple" = type { %"struct.std::_Tuple_impl" }
%"struct.std::_Tuple_impl" = type { %"struct.std::_Head_base.1" }
%"struct.std::_Head_base.1" = type { ptr }

; Function Attrs: mustprogress uwtable
define void @_ZNK5folly2fs19lexically_normal_fnclERKNSt10filesystem7__cxx114pathE(ptr dead_on_unwind noalias writable sret(%"class.std::filesystem::__cxx11::path") align 8 %agg.result, ptr nocapture noundef nonnull readnone align 1 dereferenceable(1) %this, ptr noundef nonnull align 8 dereferenceable(40) %p) local_unnamed_addr #0 align 2 {
entry:
  tail call void @_ZNKSt10filesystem7__cxx114path16lexically_normalEv(ptr dead_on_unwind writable sret(%"class.std::filesystem::__cxx11::path") align 8 %agg.result, ptr noundef nonnull align 8 dereferenceable(40) %p)
  ret void
}

declare void @_ZNKSt10filesystem7__cxx114path16lexically_normalEv(ptr dead_on_unwind writable sret(%"class.std::filesystem::__cxx11::path") align 8, ptr noundef nonnull align 8 dereferenceable(40)) local_unnamed_addr #1


!llvm.module.flags = !{!0, !1, !2, !3, !4, !5, !6}

!0 = !{i32 7, !"Dwarf Version", i32 5}
!1 = !{i32 2, !"Debug Info Version", i32 3}
!2 = !{i32 1, !"wchar_size", i32 4}
!3 = !{i32 7, !"openmp", i32 51}
!4 = !{i32 8, !"PIC Level", i32 2}
!5 = !{i32 7, !"uwtable", i32 2}
!6 = !{i32 7, !"debug-info-assignment-tracking", i1 true}
